target datalayout = "e-m:e-p270:32:32-p271:32:32-p272:64:64-i64:64-i128:128-f80:128-n8:16:32:64-S128"
target triple = "x86_64-pc-linux-gnu"

%"class.std::__cxx11::basic_string" = type { %"struct.std::__cxx11::basic_string<char>::_Alloc_hider", i64, %union.anon }
%"struct.std::__cxx11::basic_string<char>::_Alloc_hider" = type { ptr }
%union.anon = type { i64, [8 x i8] }
%class.cmCMakePresetsGraph = type { %"class.std::__cxx11::basic_string", %class.cmJSONState, %"class.std::map", %"class.std::map.21", %"class.std::map.26", %"class.std::map.31", %"class.std::map.36", %"class.std::vector.41", %"class.std::vector.41", %"class.std::vector.41", %"class.std::vector.41", %"class.std::vector.41", %"class.std::__cxx11::basic_string", %"class.std::vector.46" }
%class.cmJSONState = type { %"class.std::vector.8", %"class.std::vector.13", %"class.std::__cxx11::basic_string" }
%"class.std::vector.8" = type { %"struct.std::_Vector_base.9" }
%"struct.std::_Vector_base.9" = type { %"struct.std::_Vector_base<std::pair<const std::__cxx11::basic_string<char>, const Json::Value *>, std::allocator<std::pair<const std::__cxx11::basic_string<char>, const Json::Value *>>>::_Vector_impl" }
%"struct.std::_Vector_base<std::pair<const std::__cxx11::basic_string<char>, const Json::Value *>, std::allocator<std::pair<const std::__cxx11::basic_string<char>, const Json::Value *>>>::_Vector_impl" = type { %"struct.std::_Vector_base<std::pair<const std::__cxx11::basic_string<char>, const Json::Value *>, std::allocator<std::pair<const std::__cxx11::basic_string<char>, const Json::Value *>>>::_Vector_impl_data" }
%"struct.std::_Vector_base<std::pair<const std::__cxx11::basic_string<char>, const Json::Value *>, std::allocator<std::pair<const std::__cxx11::basic_string<char>, const Json::Value *>>>::_Vector_impl_data" = type { ptr, ptr, ptr }
%"class.std::vector.13" = type { %"struct.std::_Vector_base.14" }
%"struct.std::_Vector_base.14" = type { %"struct.std::_Vector_base<cmJSONState::Error, std::allocator<cmJSONState::Error>>::_Vector_impl" }
%"struct.std::_Vector_base<cmJSONState::Error, std::allocator<cmJSONState::Error>>::_Vector_impl" = type { %"struct.std::_Vector_base<cmJSONState::Error, std::allocator<cmJSONState::Error>>::_Vector_impl_data" }
%"struct.std::_Vector_base<cmJSONState::Error, std::allocator<cmJSONState::Error>>::_Vector_impl_data" = type { ptr, ptr, ptr }
%"class.std::map" = type { %"class.std::_Rb_tree" }
%"class.std::_Rb_tree" = type { %"struct.std::_Rb_tree<std::__cxx11::basic_string<char>, std::pair<const std::__cxx11::basic_string<char>, cmCMakePresetsGraph::PresetPair<cmCMakePresetsGraph::ConfigurePreset>>, std::_Select1st<std::pair<const std::__cxx11::basic_string<char>, cmCMakePresetsGraph::PresetPair<cmCMakePresetsGraph::ConfigurePreset>>>, std::less<std::__cxx11::basic_string<char>>>::_Rb_tree_impl" }
%"struct.std::_Rb_tree<std::__cxx11::basic_string<char>, std::pair<const std::__cxx11::basic_string<char>, cmCMakePresetsGraph::PresetPair<cmCMakePresetsGraph::ConfigurePreset>>, std::_Select1st<std::pair<const std::__cxx11::basic_string<char>, cmCMakePresetsGraph::PresetPair<cmCMakePresetsGraph::ConfigurePreset>>>, std::less<std::__cxx11::basic_string<char>>>::_Rb_tree_impl" = type { %"struct.std::_Rb_tree_key_compare", %"struct.std::_Rb_tree_header" }
%"struct.std::_Rb_tree_key_compare" = type { %"struct.std::less" }
%"struct.std::less" = type { i8 }
%"struct.std::_Rb_tree_header" = type { %"struct.std::_Rb_tree_node_base", i64 }
%"struct.std::_Rb_tree_node_base" = type { i32, ptr, ptr, ptr }
%"class.std::map.21" = type { %"class.std::_Rb_tree.22" }
%"class.std::_Rb_tree.22" = type { %"struct.std::_Rb_tree<std::__cxx11::basic_string<char>, std::pair<const std::__cxx11::basic_string<char>, cmCMakePresetsGraph::PresetPair<cmCMakePresetsGraph::BuildPreset>>, std::_Select1st<std::pair<const std::__cxx11::basic_string<char>, cmCMakePresetsGraph::PresetPair<cmCMakePresetsGraph::BuildPreset>>>, std::less<std::__cxx11::basic_string<char>>>::_Rb_tree_impl" }
%"struct.std::_Rb_tree<std::__cxx11::basic_string<char>, std::pair<const std::__cxx11::basic_string<char>, cmCMakePresetsGraph::PresetPair<cmCMakePresetsGraph::BuildPreset>>, std::_Select1st<std::pair<const std::__cxx11::basic_string<char>, cmCMakePresetsGraph::PresetPair<cmCMakePresetsGraph::BuildPreset>>>, std::less<std::__cxx11::basic_string<char>>>::_Rb_tree_impl" = type { %"struct.std::_Rb_tree_key_compare", %"struct.std::_Rb_tree_header" }
%"class.std::map.26" = type { %"class.std::_Rb_tree.27" }
%"class.std::_Rb_tree.27" = type { %"struct.std::_Rb_tree<std::__cxx11::basic_string<char>, std::pair<const std::__cxx11::basic_string<char>, cmCMakePresetsGraph::PresetPair<cmCMakePresetsGraph::TestPreset>>, std::_Select1st<std::pair<const std::__cxx11::basic_string<char>, cmCMakePresetsGraph::PresetPair<cmCMakePresetsGraph::TestPreset>>>, std::less<std::__cxx11::basic_string<char>>>::_Rb_tree_impl" }
%"struct.std::_Rb_tree<std::__cxx11::basic_string<char>, std::pair<const std::__cxx11::basic_string<char>, cmCMakePresetsGraph::PresetPair<cmCMakePresetsGraph::TestPreset>>, std::_Select1st<std::pair<const std::__cxx11::basic_string<char>, cmCMakePresetsGraph::PresetPair<cmCMakePresetsGraph::TestPreset>>>, std::less<std::__cxx11::basic_string<char>>>::_Rb_tree_impl" = type { %"struct.std::_Rb_tree_key_compare", %"struct.std::_Rb_tree_header" }
%"class.std::map.31" = type { %"class.std::_Rb_tree.32" }
%"class.std::_Rb_tree.32" = type { %"struct.std::_Rb_tree<std::__cxx11::basic_string<char>, std::pair<const std::__cxx11::basic_string<char>, cmCMakePresetsGraph::PresetPair<cmCMakePresetsGraph::PackagePreset>>, std::_Select1st<std::pair<const std::__cxx11::basic_string<char>, cmCMakePresetsGraph::PresetPair<cmCMakePresetsGraph::PackagePreset>>>, std::less<std::__cxx11::basic_string<char>>>::_Rb_tree_impl" }
%"struct.std::_Rb_tree<std::__cxx11::basic_string<char>, std::pair<const std::__cxx11::basic_string<char>, cmCMakePresetsGraph::PresetPair<cmCMakePresetsGraph::PackagePreset>>, std::_Select1st<std::pair<const std::__cxx11::basic_string<char>, cmCMakePresetsGraph::PresetPair<cmCMakePresetsGraph::PackagePreset>>>, std::less<std::__cxx11::basic_string<char>>>::_Rb_tree_impl" = type { %"struct.std::_Rb_tree_key_compare", %"struct.std::_Rb_tree_header" }
%"class.std::map.36" = type { %"class.std::_Rb_tree.37" }
%"class.std::_Rb_tree.37" = type { %"struct.std::_Rb_tree<std::__cxx11::basic_string<char>, std::pair<const std::__cxx11::basic_string<char>, cmCMakePresetsGraph::PresetPair<cmCMakePresetsGraph::WorkflowPreset>>, std::_Select1st<std::pair<const std::__cxx11::basic_string<char>, cmCMakePresetsGraph::PresetPair<cmCMakePresetsGraph::WorkflowPreset>>>, std::less<std::__cxx11::basic_string<char>>>::_Rb_tree_impl" }
%"struct.std::_Rb_tree<std::__cxx11::basic_string<char>, std::pair<const std::__cxx11::basic_string<char>, cmCMakePresetsGraph::PresetPair<cmCMakePresetsGraph::WorkflowPreset>>, std::_Select1st<std::pair<const std::__cxx11::basic_string<char>, cmCMakePresetsGraph::PresetPair<cmCMakePresetsGraph::WorkflowPreset>>>, std::less<std::__cxx11::basic_string<char>>>::_Rb_tree_impl" = type { %"struct.std::_Rb_tree_key_compare", %"struct.std::_Rb_tree_header" }
%"class.std::vector.41" = type { %"struct.std::_Vector_base.42" }
%"struct.std::_Vector_base.42" = type { %"struct.std::_Vector_base<std::__cxx11::basic_string<char>, std::allocator<std::__cxx11::basic_string<char>>>::_Vector_impl" }
%"struct.std::_Vector_base<std::__cxx11::basic_string<char>, std::allocator<std::__cxx11::basic_string<char>>>::_Vector_impl" = type { %"struct.std::_Vector_base<std::__cxx11::basic_string<char>, std::allocator<std::__cxx11::basic_string<char>>>::_Vector_impl_data" }
%"struct.std::_Vector_base<std::__cxx11::basic_string<char>, std::allocator<std::__cxx11::basic_string<char>>>::_Vector_impl_data" = type { ptr, ptr, ptr }
%"class.std::vector.46" = type { %"struct.std::_Vector_base.47" }
%"struct.std::_Vector_base.47" = type { %"struct.std::_Vector_base<std::unique_ptr<cmCMakePresetsGraph::File>, std::allocator<std::unique_ptr<cmCMakePresetsGraph::File>>>::_Vector_impl" }
%"struct.std::_Vector_base<std::unique_ptr<cmCMakePresetsGraph::File>, std::allocator<std::unique_ptr<cmCMakePresetsGraph::File>>>::_Vector_impl" = type { %"struct.std::_Vector_base<std::unique_ptr<cmCMakePresetsGraph::File>, std::allocator<std::unique_ptr<cmCMakePresetsGraph::File>>>::_Vector_impl_data" }
%"struct.std::_Vector_base<std::unique_ptr<cmCMakePresetsGraph::File>, std::allocator<std::unique_ptr<cmCMakePresetsGraph::File>>>::_Vector_impl_data" = type { ptr, ptr, ptr }

; Function Attrs: mustprogress uwtable
define dso_local noundef zeroext i1 @_ZN19cmCMakePresetsGraph18ReadProjectPresetsERKNSt7__cxx1112basic_stringIcSt11char_traitsIcESaIcEEEb(ptr noundef nonnull align 8 dereferenceable(528) %0, ptr noundef nonnull align 8 dereferenceable(32) %1, i1 noundef zeroext %2) #4 align 2 {
  %4 = alloca i1, align 1
  %5 = alloca ptr, align 8
  %6 = alloca ptr, align 8
  %7 = alloca i8, align 1
  store ptr %0, ptr %5, align 8
  store ptr %1, ptr %6, align 8
  %8 = zext i1 %2 to i8
  store i8 %8, ptr %7, align 1
  %9 = load ptr, ptr %5, align 8
  %10 = load ptr, ptr %6, align 8
  %11 = getelementptr inbounds %class.cmCMakePresetsGraph, ptr %9, i32 0, i32 12
  %12 = call noundef nonnull align 8 dereferenceable(32) ptr @_ZNSt7__cxx1112basic_stringIcSt11char_traitsIcESaIcEEaSERKS4_(ptr noundef nonnull align 8 dereferenceable(32) %11, ptr noundef nonnull align 8 dereferenceable(32) %10)
  call void @_ZN19cmCMakePresetsGraph12ClearPresetsEv(ptr noundef nonnull align 8 dereferenceable(528) %9)
  %13 = load i8, ptr %7, align 1
  %14 = trunc i8 %13 to i1
  %15 = call noundef zeroext i1 @_ZN19cmCMakePresetsGraph26ReadProjectPresetsInternalEb(ptr noundef nonnull align 8 dereferenceable(528) %9, i1 noundef zeroext %14)
  br i1 %15, label %17, label %16

16:                                               ; preds = %3
  call void @_ZN19cmCMakePresetsGraph12ClearPresetsEv(ptr noundef nonnull align 8 dereferenceable(528) %9)
  store i1 false, ptr %4, align 1
  br label %18

17:                                               ; preds = %3
  store i1 true, ptr %4, align 1
  br label %18

18:                                               ; preds = %17, %16
  %19 = load i1, ptr %4, align 1
  ret i1 %19
}