; Function Attrs: mustprogress uwtable
define dso_local noundef zeroext i1 @_ZN19cmCMakePresetsGraph18ReadProjectPresetsERKNSt7__cxx1112basic_stringIcSt11char_traitsIcESaIcEEEb(ptr noundef nonnull align 8 dereferenceable(528) %0, ptr noundef nonnull align 8 dereferenceable(32) %1, i1 noundef zeroext %2) local_unnamed_addr #3 align 2 {
  %4 = getelementptr inbounds i8, ptr %0, i64 472
  %5 = tail call noundef nonnull align 8 dereferenceable(32) ptr @_ZNSt7__cxx1112basic_stringIcSt11char_traitsIcESaIcEEaSERKS4_(ptr noundef nonnull align 8 dereferenceable(32) %4, ptr noundef nonnull align 8 dereferenceable(32) %1)
  tail call void @_ZN19cmCMakePresetsGraph12ClearPresetsEv(ptr noundef nonnull align 8 dereferenceable(528) %0)
  %6 = tail call noundef zeroext i1 @_ZN19cmCMakePresetsGraph26ReadProjectPresetsInternalEb(ptr noundef nonnull align 8 dereferenceable(528) %0, i1 noundef zeroext %2)
  br i1 %6, label %8, label %7

7:                                                ; preds = %3
  tail call void @_ZN19cmCMakePresetsGraph12ClearPresetsEv(ptr noundef nonnull align 8 dereferenceable(528) %0)
  br label %8

8:                                                ; preds = %3, %7
  ret i1 %6
}